target datalayout = "e-m:e-p270:32:32-p271:32:32-p272:64:64-i64:64-i128:128-f80:128-n8:16:32:64-S128"
target triple = "x86_64-pc-linux-gnu"

%struct.expert_field = type { i32, i32 }

@hf_uftp_hbresp = internal global i32 0, align 4
@hf_uftp_hbresp_func = internal global i32 0, align 4
@hf_uftp_hbresp_hlen = internal global i32 0, align 4
@hf_uftp_hbresp_authenticated = internal global i32 0, align 4
@hf_uftp_hbresp_reserved = internal global i32 0, align 4
@hf_uftp_hbresp_nonce = internal global i32 0, align 4
@ett_uftp_hbresp = internal global i32 0, align 4
@ei_uftp_length_invalid = internal global %struct.expert_field zeroinitializer, align 4
@.str.427 = private unnamed_addr constant [19 x i8] c"Invalid length: %d\00", align 1
@.str.428 = private unnamed_addr constant [36 x i8] c"Invalid length, len = %d, hlen = %d\00", align 1
@.str.429 = private unnamed_addr constant [14 x i8] c"%d bytes (%d)\00", align 1

; Function Attrs: null_pointer_is_valid sspstrong uwtable
define internal void @dissect_uftp_hbresp(ptr noundef %0, ptr noundef %1, ptr noundef %2) #0 {
  %4 = alloca ptr, align 8
  %5 = alloca ptr, align 8
  %6 = alloca ptr, align 8
  %7 = alloca ptr, align 8
  %8 = alloca ptr, align 8
  %9 = alloca i32, align 4
  %10 = alloca i32, align 4
  %11 = alloca i32, align 4
  store ptr %0, ptr %4, align 8
  store ptr %1, ptr %5, align 8
  store ptr %2, ptr %6, align 8
  call void @llvm.lifetime.start.p0(i64 8, ptr %7) #5
  store ptr null, ptr %7, align 8
  call void @llvm.lifetime.start.p0(i64 8, ptr %8) #5
  store ptr null, ptr %8, align 8
  call void @llvm.lifetime.start.p0(i64 4, ptr %9) #5
  store i32 0, ptr %9, align 4
  call void @llvm.lifetime.start.p0(i64 4, ptr %10) #5
  %12 = load ptr, ptr %4, align 8
  %13 = call i32 @tvb_reported_length(ptr noundef %12)
  %14 = icmp ult i32 %13, 8
  br i1 %14, label %15, label %23

15:                                               ; preds = %3
  %16 = load ptr, ptr %6, align 8
  %17 = load ptr, ptr %5, align 8
  %18 = load ptr, ptr %4, align 8
  %19 = load i32, ptr %9, align 4
  %20 = load ptr, ptr %4, align 8
  %21 = call i32 @tvb_reported_length(ptr noundef %20)
  %22 = call ptr (ptr, ptr, ptr, ptr, i32, i32, ptr, ...) @proto_tree_add_expert_format(ptr noundef %16, ptr noundef %17, ptr noundef @ei_uftp_length_invalid, ptr noundef %18, i32 noundef %19, i32 noundef -1, ptr noundef @.str.427, i32 noundef %21)
  store i32 1, ptr %11, align 4
  br label %90

23:                                               ; preds = %3
  %24 = load ptr, ptr %4, align 8
  %25 = call zeroext i8 @tvb_get_uint8(ptr noundef %24, i32 noundef 1)
  %26 = zext i8 %25 to i32
  %27 = mul i32 %26, 4
  store i32 %27, ptr %10, align 4
  %28 = load ptr, ptr %4, align 8
  %29 = call i32 @tvb_reported_length(ptr noundef %28)
  %30 = load i32, ptr %10, align 4
  %31 = icmp slt i32 %29, %30
  br i1 %31, label %35, label %32

32:                                               ; preds = %23
  %33 = load i32, ptr %10, align 4
  %34 = icmp slt i32 %33, 8
  br i1 %34, label %35, label %44

35:                                               ; preds = %32, %23
  %36 = load ptr, ptr %6, align 8
  %37 = load ptr, ptr %5, align 8
  %38 = load ptr, ptr %4, align 8
  %39 = load i32, ptr %9, align 4
  %40 = load ptr, ptr %4, align 8
  %41 = call i32 @tvb_reported_length(ptr noundef %40)
  %42 = load i32, ptr %10, align 4
  %43 = call ptr (ptr, ptr, ptr, ptr, i32, i32, ptr, ...) @proto_tree_add_expert_format(ptr noundef %36, ptr noundef %37, ptr noundef @ei_uftp_length_invalid, ptr noundef %38, i32 noundef %39, i32 noundef -1, ptr noundef @.str.428, i32 noundef %41, i32 noundef %42)
  store i32 1, ptr %11, align 4
  br label %90

44:                                               ; preds = %32
  %45 = load ptr, ptr %6, align 8
  %46 = load i32, ptr @hf_uftp_hbresp, align 4
  %47 = load ptr, ptr %4, align 8
  %48 = load i32, ptr %9, align 4
  %49 = call ptr @proto_tree_add_item(ptr noundef %45, i32 noundef %46, ptr noundef %47, i32 noundef %48, i32 noundef -1, i32 noundef 0)
  store ptr %49, ptr %7, align 8
  %50 = load ptr, ptr %7, align 8
  %51 = load i32, ptr @ett_uftp_hbresp, align 4
  %52 = call ptr @proto_item_add_subtree(ptr noundef %50, i32 noundef %51)
  store ptr %52, ptr %8, align 8
  %53 = load ptr, ptr %8, align 8
  %54 = load i32, ptr @hf_uftp_hbresp_func, align 4
  %55 = load ptr, ptr %4, align 8
  %56 = load i32, ptr %9, align 4
  %57 = call ptr @proto_tree_add_item(ptr noundef %53, i32 noundef %54, ptr noundef %55, i32 noundef %56, i32 noundef 1, i32 noundef 0)
  %58 = load i32, ptr %9, align 4
  %59 = add i32 %58, 1
  store i32 %59, ptr %9, align 4
  %60 = load ptr, ptr %8, align 8
  %61 = load i32, ptr @hf_uftp_hbresp_hlen, align 4
  %62 = load ptr, ptr %4, align 8
  %63 = load i32, ptr %9, align 4
  %64 = load i32, ptr %10, align 4
  %65 = load i32, ptr %10, align 4
  %66 = load i32, ptr %10, align 4
  %67 = sdiv i32 %66, 4
  %68 = call ptr (ptr, i32, ptr, i32, i32, i32, ptr, ...) @proto_tree_add_uint_format_value(ptr noundef %60, i32 noundef %61, ptr noundef %62, i32 noundef %63, i32 noundef 1, i32 noundef %64, ptr noundef @.str.429, i32 noundef %65, i32 noundef %67)
  %69 = load i32, ptr %9, align 4
  %70 = add i32 %69, 1
  store i32 %70, ptr %9, align 4
  %71 = load ptr, ptr %8, align 8
  %72 = load i32, ptr @hf_uftp_hbresp_authenticated, align 4
  %73 = load ptr, ptr %4, align 8
  %74 = load i32, ptr %9, align 4
  %75 = call ptr @proto_tree_add_item(ptr noundef %71, i32 noundef %72, ptr noundef %73, i32 noundef %74, i32 noundef 1, i32 noundef 0)
  %76 = load i32, ptr %9, align 4
  %77 = add i32 %76, 1
  store i32 %77, ptr %9, align 4
  %78 = load ptr, ptr %8, align 8
  %79 = load i32, ptr @hf_uftp_hbresp_reserved, align 4
  %80 = load ptr, ptr %4, align 8
  %81 = load i32, ptr %9, align 4
  %82 = call ptr @proto_tree_add_item(ptr noundef %78, i32 noundef %79, ptr noundef %80, i32 noundef %81, i32 noundef 1, i32 noundef 0)
  %83 = load i32, ptr %9, align 4
  %84 = add i32 %83, 1
  store i32 %84, ptr %9, align 4
  %85 = load ptr, ptr %8, align 8
  %86 = load i32, ptr @hf_uftp_hbresp_nonce, align 4
  %87 = load ptr, ptr %4, align 8
  %88 = load i32, ptr %9, align 4
  %89 = call ptr @proto_tree_add_item(ptr noundef %85, i32 noundef %86, ptr noundef %87, i32 noundef %88, i32 noundef 4, i32 noundef 0)
  store i32 0, ptr %11, align 4
  br label %90

90:                                               ; preds = %44, %35, %15
  call void @llvm.lifetime.end.p0(i64 4, ptr %10) #5
  call void @llvm.lifetime.end.p0(i64 4, ptr %9) #5
  call void @llvm.lifetime.end.p0(i64 8, ptr %8) #5
  call void @llvm.lifetime.end.p0(i64 8, ptr %7) #5
  %91 = load i32, ptr %11, align 4
  switch i32 %91, label %93 [
    i32 0, label %92
    i32 1, label %92
  ]

92:                                               ; preds = %90, %90
  ret void

93:                                               ; preds = %90
  unreachable
}